; Function Attrs: nounwind uwtable
define internal void @TransformColorInverse_SSE41(ptr noundef %0, ptr noundef %1, i32 noundef %2, ptr noundef %3) #1 {
  %.not37 = icmp slt i32 %2, 4
  br i1 %.not37, label %._crit_edge, label %.lr.ph

.lr.ph:                                           ; preds = %4
  %5 = getelementptr inbounds nuw i8, ptr %0, i64 2
  %6 = load i8, ptr %5, align 1, !tbaa !7
  %7 = zext i8 %6 to i16
  %8 = shl nuw i16 %7, 8
  %9 = ashr exact i16 %8, 5
  %10 = sext i16 %9 to i32
  %11 = insertelement <4 x i32> poison, i32 %10, i64 0
  %12 = load i8, ptr %0, align 1, !tbaa !9
  %13 = zext i8 %12 to i16
  %14 = shl nuw i16 %13, 8
  %15 = ashr exact i16 %14, 5
  %16 = sext i16 %15 to i32
  %17 = shl nsw i32 %16, 16
  %18 = getelementptr inbounds nuw i8, ptr %0, i64 1
  %19 = load i8, ptr %18, align 1, !tbaa !10
  %20 = zext i8 %19 to i16
  %21 = shl nuw i16 %20, 8
  %22 = ashr exact i16 %21, 5
  %23 = zext i16 %22 to i32
  %24 = or disjoint i32 %17, %23
  %25 = insertelement <4 x i32> poison, i32 %24, i64 0
  %26 = bitcast <4 x i32> %25 to <8 x i16>
  %27 = shufflevector <8 x i16> %26, <8 x i16> poison, <8 x i32> <i32 0, i32 1, i32 0, i32 1, i32 0, i32 1, i32 0, i32 1>
  %28 = bitcast <4 x i32> %11 to <8 x i16>
  %29 = shufflevector <8 x i16> %28, <8 x i16> poison, <8 x i32> <i32 0, i32 1, i32 0, i32 1, i32 0, i32 1, i32 0, i32 1>
  %30 = zext nneg i32 %2 to i64
  br label %31

31:                                               ; preds = %.lr.ph, %31
  %indvars.iv39 = phi i64 [ 0, %.lr.ph ], [ %indvars.iv.next40, %31 ]
  %indvars.iv = phi i64 [ 4, %.lr.ph ], [ %indvars.iv.next, %31 ]
  %32 = getelementptr inbounds nuw i32, ptr %1, i64 %indvars.iv39
  %33 = load <16 x i8>, ptr %32, align 1, !tbaa !11
  %34 = shufflevector <16 x i8> %33, <16 x i8> <i8 0, i8 poison, i8 poison, i8 poison, i8 poison, i8 poison, i8 poison, i8 poison, i8 poison, i8 poison, i8 poison, i8 poison, i8 poison, i8 poison, i8 poison, i8 poison>, <16 x i32> <i32 16, i32 1, i32 16, i32 1, i32 16, i32 5, i32 16, i32 5, i32 16, i32 9, i32 16, i32 9, i32 16, i32 13, i32 16, i32 13>
  %35 = bitcast <16 x i8> %34 to <8 x i16>
  %36 = tail call <8 x i16> @llvm.x86.sse2.pmulh.w(<8 x i16> %35, <8 x i16> %27)
  %37 = bitcast <8 x i16> %36 to <16 x i8>
  %38 = add <16 x i8> %33, %37
  %39 = shufflevector <16 x i8> %38, <16 x i8> <i8 0, i8 poison, i8 poison, i8 poison, i8 poison, i8 poison, i8 poison, i8 poison, i8 poison, i8 poison, i8 poison, i8 poison, i8 poison, i8 poison, i8 poison, i8 poison>, <16 x i32> <i32 16, i32 2, i32 16, i32 16, i32 16, i32 6, i32 16, i32 16, i32 16, i32 10, i32 16, i32 16, i32 16, i32 14, i32 16, i32 16>
  %40 = bitcast <16 x i8> %39 to <8 x i16>
  %41 = tail call <8 x i16> @llvm.x86.sse2.pmulh.w(<8 x i16> %40, <8 x i16> %29)
  %42 = bitcast <8 x i16> %41 to <16 x i8>
  %43 = add <16 x i8> %38, %42
  %44 = shufflevector <16 x i8> %43, <16 x i8> %33, <16 x i32> <i32 0, i32 17, i32 2, i32 19, i32 4, i32 21, i32 6, i32 23, i32 8, i32 25, i32 10, i32 27, i32 12, i32 29, i32 14, i32 31>
  %45 = getelementptr inbounds nuw i32, ptr %3, i64 %indvars.iv39
  store <16 x i8> %44, ptr %45, align 1, !tbaa !11
  %indvars.iv.next = add nuw nsw i64 %indvars.iv, 4
  %.not = icmp samesign ugt i64 %indvars.iv.next, %30
  %indvars.iv.next40 = add nuw nsw i64 %indvars.iv39, 4
  br i1 %.not, label %._crit_edge.loopexit, label %31, !llvm.loop !12

._crit_edge.loopexit:                             ; preds = %31
  %46 = trunc nuw nsw i64 %indvars.iv to i32
  br label %._crit_edge

._crit_edge:                                      ; preds = %._crit_edge.loopexit, %4
  %.0.lcssa = phi i32 [ 0, %4 ], [ %46, %._crit_edge.loopexit ]
  %.not36 = icmp eq i32 %.0.lcssa, %2
  br i1 %.not36, label %52, label %47

47:                                               ; preds = %._crit_edge
  %48 = zext nneg i32 %.0.lcssa to i64
  %49 = getelementptr inbounds nuw i32, ptr %1, i64 %48
  %50 = sub nsw i32 %2, %.0.lcssa
  %51 = getelementptr inbounds nuw i32, ptr %3, i64 %48
  tail call void @VP8LTransformColorInverse_C(ptr noundef nonnull %0, ptr noundef %49, i32 noundef %50, ptr noundef %51) #4
  br label %52

52:                                               ; preds = %47, %._crit_edge
  ret void
}